target datalayout = "e-m:e-p270:32:32-p271:32:32-p272:64:64-i64:64-i128:128-f80:128-n8:16:32:64-S128"
target triple = "x86_64-pc-linux-gnu"

%"class.std::deque" = type { %"class.std::_Deque_base" }
%"class.std::_Deque_base" = type { %"struct.std::_Deque_base<std::__cxx11::basic_string<char>, std::allocator<std::__cxx11::basic_string<char>>>::_Deque_impl" }
%"struct.std::_Deque_base<std::__cxx11::basic_string<char>, std::allocator<std::__cxx11::basic_string<char>>>::_Deque_impl" = type { %"struct.std::_Deque_base<std::__cxx11::basic_string<char>, std::allocator<std::__cxx11::basic_string<char>>>::_Deque_impl_data" }
%"struct.std::_Deque_base<std::__cxx11::basic_string<char>, std::allocator<std::__cxx11::basic_string<char>>>::_Deque_impl_data" = type { ptr, i64, %"struct.std::_Deque_iterator", %"struct.std::_Deque_iterator" }
%"struct.std::_Deque_iterator" = type { ptr, ptr, ptr, ptr }
%class.FileLine = type { i16, i16, i32, i32, i32, i32, i32, ptr, ptr }
%class.VFileContent = type { i32, %"struct.std::atomic", %"class.std::deque" }
%"struct.std::atomic" = type { %"struct.std::__atomic_base" }
%"struct.std::__atomic_base" = type { i64 }

@_ZZN12VFileContentC1EvE4s_id = linkonce_odr dso_local global i32 0, comdat, align 4

; Function Attrs: mustprogress nounwind uwtable
define linkonce_odr dso_local void @_ZNSt15__new_allocatorINSt7__cxx1112basic_stringIcSt11char_traitsIcESaIcEEEED2Ev(ptr noundef nonnull align 1 dereferenceable(1) %0) unnamed_addr #5 comdat align 2 {
  %2 = alloca ptr, align 8
  store ptr %0, ptr %2, align 8
  ret void
}

; Function Attrs: mustprogress nounwind uwtable
define linkonce_odr dso_local void @_ZNSt15_Deque_iteratorINSt7__cxx1112basic_stringIcSt11char_traitsIcESaIcEEERS5_PS5_EC2Ev(ptr noundef nonnull align 8 dereferenceable(32) %0) unnamed_addr #5 comdat align 2 {
  %2 = alloca ptr, align 8
  store ptr %0, ptr %2, align 8
  %3 = load ptr, ptr %2, align 8
  %4 = getelementptr inbounds %"struct.std::_Deque_iterator", ptr %3, i32 0, i32 0
  store ptr null, ptr %4, align 8
  %5 = getelementptr inbounds %"struct.std::_Deque_iterator", ptr %3, i32 0, i32 1
  store ptr null, ptr %5, align 8
  %6 = getelementptr inbounds %"struct.std::_Deque_iterator", ptr %3, i32 0, i32 2
  store ptr null, ptr %6, align 8
  %7 = getelementptr inbounds %"struct.std::_Deque_iterator", ptr %3, i32 0, i32 3
  store ptr null, ptr %7, align 8
  ret void
}

; Function Attrs: mustprogress nounwind uwtable
define linkonce_odr dso_local void @_ZNSt15__new_allocatorINSt7__cxx1112basic_stringIcSt11char_traitsIcESaIcEEEEC2Ev(ptr noundef nonnull align 1 dereferenceable(1) %0) unnamed_addr #5 comdat align 2 {
  %2 = alloca ptr, align 8
  store ptr %0, ptr %2, align 8
  ret void
}

; Function Attrs: mustprogress nounwind uwtable
define linkonce_odr dso_local void @_ZNSaINSt7__cxx1112basic_stringIcSt11char_traitsIcESaIcEEEED2Ev(ptr noundef nonnull align 1 dereferenceable(1) %0) unnamed_addr #5 comdat align 2 {
  %2 = alloca ptr, align 8
  store ptr %0, ptr %2, align 8
  %3 = load ptr, ptr %2, align 8
  call void @_ZNSt15__new_allocatorINSt7__cxx1112basic_stringIcSt11char_traitsIcESaIcEEEED2Ev(ptr noundef nonnull align 1 dereferenceable(1) %3) #3
  ret void
}

; Function Attrs: mustprogress nounwind uwtable
define linkonce_odr dso_local void @_ZNSt11_Deque_baseINSt7__cxx1112basic_stringIcSt11char_traitsIcESaIcEEESaIS5_EE16_Deque_impl_dataC2Ev(ptr noundef nonnull align 8 dereferenceable(80) %0) unnamed_addr #5 comdat align 2 {
  %2 = alloca ptr, align 8
  store ptr %0, ptr %2, align 8
  %3 = load ptr, ptr %2, align 8
  %4 = getelementptr inbounds %"struct.std::_Deque_base<std::__cxx11::basic_string<char>, std::allocator<std::__cxx11::basic_string<char>>>::_Deque_impl_data", ptr %3, i32 0, i32 0
  store ptr null, ptr %4, align 8
  %5 = getelementptr inbounds %"struct.std::_Deque_base<std::__cxx11::basic_string<char>, std::allocator<std::__cxx11::basic_string<char>>>::_Deque_impl_data", ptr %3, i32 0, i32 1
  store i64 0, ptr %5, align 8
  %6 = getelementptr inbounds %"struct.std::_Deque_base<std::__cxx11::basic_string<char>, std::allocator<std::__cxx11::basic_string<char>>>::_Deque_impl_data", ptr %3, i32 0, i32 2
  call void @_ZNSt15_Deque_iteratorINSt7__cxx1112basic_stringIcSt11char_traitsIcESaIcEEERS5_PS5_EC2Ev(ptr noundef nonnull align 8 dereferenceable(32) %6) #3
  %7 = getelementptr inbounds %"struct.std::_Deque_base<std::__cxx11::basic_string<char>, std::allocator<std::__cxx11::basic_string<char>>>::_Deque_impl_data", ptr %3, i32 0, i32 3
  call void @_ZNSt15_Deque_iteratorINSt7__cxx1112basic_stringIcSt11char_traitsIcESaIcEEERS5_PS5_EC2Ev(ptr noundef nonnull align 8 dereferenceable(32) %7) #3
  ret void
}

; Function Attrs: mustprogress nounwind uwtable
define linkonce_odr dso_local void @_ZNSaINSt7__cxx1112basic_stringIcSt11char_traitsIcESaIcEEEEC2Ev(ptr noundef nonnull align 1 dereferenceable(1) %0) unnamed_addr #5 comdat align 2 {
  %2 = alloca ptr, align 8
  store ptr %0, ptr %2, align 8
  %3 = load ptr, ptr %2, align 8
  call void @_ZNSt15__new_allocatorINSt7__cxx1112basic_stringIcSt11char_traitsIcESaIcEEEEC2Ev(ptr noundef nonnull align 1 dereferenceable(1) %3) #3
  ret void
}

; Function Attrs: mustprogress nounwind uwtable
define linkonce_odr dso_local void @_ZNSt11_Deque_baseINSt7__cxx1112basic_stringIcSt11char_traitsIcESaIcEEESaIS5_EE11_Deque_implD2Ev(ptr noundef nonnull align 8 dereferenceable(80) %0) unnamed_addr #5 comdat align 2 {
  %2 = alloca ptr, align 8
  store ptr %0, ptr %2, align 8
  %3 = load ptr, ptr %2, align 8
  call void @_ZNSaINSt7__cxx1112basic_stringIcSt11char_traitsIcESaIcEEEED2Ev(ptr noundef nonnull align 1 dereferenceable(1) %3) #3
  ret void
}

; Function Attrs: mustprogress nounwind uwtable
define linkonce_odr dso_local void @_ZNSt11_Deque_baseINSt7__cxx1112basic_stringIcSt11char_traitsIcESaIcEEESaIS5_EE11_Deque_implC2Ev(ptr noundef nonnull align 8 dereferenceable(80) %0) unnamed_addr #5 comdat align 2 {
  %2 = alloca ptr, align 8
  store ptr %0, ptr %2, align 8
  %3 = load ptr, ptr %2, align 8
  call void @_ZNSaINSt7__cxx1112basic_stringIcSt11char_traitsIcESaIcEEEEC2Ev(ptr noundef nonnull align 1 dereferenceable(1) %3) #3
  call void @_ZNSt11_Deque_baseINSt7__cxx1112basic_stringIcSt11char_traitsIcESaIcEEESaIS5_EE16_Deque_impl_dataC2Ev(ptr noundef nonnull align 8 dereferenceable(80) %3) #3
  ret void
}

; Function Attrs: mustprogress uwtable
define linkonce_odr dso_local void @_ZNSt11_Deque_baseINSt7__cxx1112basic_stringIcSt11char_traitsIcESaIcEEESaIS5_EEC2Ev(ptr noundef nonnull align 8 dereferenceable(80) %0) unnamed_addr #4 comdat align 2 personality ptr @__gxx_personality_v0 {
  %2 = alloca ptr, align 8
  %3 = alloca ptr, align 8
  %4 = alloca i32, align 4
  store ptr %0, ptr %2, align 8
  %5 = load ptr, ptr %2, align 8
  %6 = getelementptr inbounds %"class.std::_Deque_base", ptr %5, i32 0, i32 0
  call void @_ZNSt11_Deque_baseINSt7__cxx1112basic_stringIcSt11char_traitsIcESaIcEEESaIS5_EE11_Deque_implC2Ev(ptr noundef nonnull align 8 dereferenceable(80) %6) #3
  invoke void @_ZNSt11_Deque_baseINSt7__cxx1112basic_stringIcSt11char_traitsIcESaIcEEESaIS5_EE17_M_initialize_mapEm(ptr noundef nonnull align 8 dereferenceable(80) %5, i64 noundef 0)
          to label %7 unwind label %8

7:                                                ; preds = %1
  ret void

8:                                                ; preds = %1
  %9 = landingpad { ptr, i32 }
          cleanup
  %10 = extractvalue { ptr, i32 } %9, 0
  store ptr %10, ptr %3, align 8
  %11 = extractvalue { ptr, i32 } %9, 1
  store i32 %11, ptr %4, align 4
  call void @_ZNSt11_Deque_baseINSt7__cxx1112basic_stringIcSt11char_traitsIcESaIcEEESaIS5_EE11_Deque_implD2Ev(ptr noundef nonnull align 8 dereferenceable(80) %6) #3
  br label %12

12:                                               ; preds = %8
  %13 = load ptr, ptr %3, align 8
  %14 = load i32, ptr %4, align 4
  %15 = insertvalue { ptr, i32 } poison, ptr %13, 0
  %16 = insertvalue { ptr, i32 } %15, i32 %14, 1
  resume { ptr, i32 } %16
}

; Function Attrs: mustprogress nounwind uwtable
define linkonce_odr dso_local void @_ZNSt13__atomic_baseImEC2Em(ptr noundef nonnull align 8 dereferenceable(8) %0, i64 noundef %1) unnamed_addr #5 comdat align 2 {
  %3 = alloca ptr, align 8
  %4 = alloca i64, align 8
  store ptr %0, ptr %3, align 8
  store i64 %1, ptr %4, align 8
  %5 = load ptr, ptr %3, align 8
  %6 = getelementptr inbounds %"struct.std::__atomic_base", ptr %5, i32 0, i32 0
  %7 = load i64, ptr %4, align 8
  store i64 %7, ptr %6, align 8
  ret void
}

; Function Attrs: mustprogress nounwind uwtable
define linkonce_odr dso_local noundef i64 @_ZNSt13__atomic_baseImEppEv(ptr noundef nonnull align 8 dereferenceable(8) %0) #5 comdat align 2 {
  %2 = alloca ptr, align 8
  %3 = alloca i64, align 8
  %4 = alloca i64, align 8
  store ptr %0, ptr %2, align 8
  %5 = load ptr, ptr %2, align 8
  %6 = getelementptr inbounds %"struct.std::__atomic_base", ptr %5, i32 0, i32 0
  store i64 1, ptr %3, align 8
  %7 = load i64, ptr %3, align 8
  %8 = atomicrmw add ptr %6, i64 %7 seq_cst, align 8
  %9 = add i64 %8, %7
  store i64 %9, ptr %4, align 8
  %10 = load i64, ptr %4, align 8
  ret i64 %10
}

; Function Attrs: mustprogress uwtable
define linkonce_odr dso_local void @_ZNSt5dequeINSt7__cxx1112basic_stringIcSt11char_traitsIcESaIcEEESaIS5_EEC2Ev(ptr noundef nonnull align 8 dereferenceable(80) %0) unnamed_addr #4 comdat align 2 {
  %2 = alloca ptr, align 8
  store ptr %0, ptr %2, align 8
  %3 = load ptr, ptr %2, align 8
  call void @_ZNSt11_Deque_baseINSt7__cxx1112basic_stringIcSt11char_traitsIcESaIcEEESaIS5_EEC2Ev(ptr noundef nonnull align 8 dereferenceable(80) %3)
  ret void
}

; Function Attrs: mustprogress nounwind uwtable
define linkonce_odr dso_local void @_ZNSt6atomicImEC2Em(ptr noundef nonnull align 8 dereferenceable(8) %0, i64 noundef %1) unnamed_addr #5 comdat align 2 {
  %3 = alloca ptr, align 8
  %4 = alloca i64, align 8
  store ptr %0, ptr %3, align 8
  store i64 %1, ptr %4, align 8
  %5 = load ptr, ptr %3, align 8
  %6 = load i64, ptr %4, align 8
  call void @_ZNSt13__atomic_baseImEC2Em(ptr noundef nonnull align 8 dereferenceable(8) %5, i64 noundef %6) #3
  ret void
}

; Function Attrs: mustprogress nounwind uwtable
define linkonce_odr dso_local void @_ZN12VFileContentD2Ev(ptr noundef nonnull align 8 dereferenceable(96) %0) unnamed_addr #5 comdat align 2 {
  %2 = alloca ptr, align 8
  store ptr %0, ptr %2, align 8
  %3 = load ptr, ptr %2, align 8
  %4 = getelementptr inbounds %class.VFileContent, ptr %3, i32 0, i32 2
  call void @_ZNSt5dequeINSt7__cxx1112basic_stringIcSt11char_traitsIcESaIcEEESaIS5_EED2Ev(ptr noundef nonnull align 8 dereferenceable(80) %4) #3
  ret void
}

; Function Attrs: mustprogress nounwind uwtable
define linkonce_odr dso_local noundef i64 @_ZNSt13__atomic_baseImEmmEv(ptr noundef nonnull align 8 dereferenceable(8) %0) #5 comdat align 2 {
  %2 = alloca ptr, align 8
  %3 = alloca i64, align 8
  %4 = alloca i64, align 8
  store ptr %0, ptr %2, align 8
  %5 = load ptr, ptr %2, align 8
  %6 = getelementptr inbounds %"struct.std::__atomic_base", ptr %5, i32 0, i32 0
  store i64 1, ptr %3, align 8
  %7 = load i64, ptr %3, align 8
  %8 = atomicrmw sub ptr %6, i64 %7 seq_cst, align 8
  %9 = sub i64 %8, %7
  store i64 %9, ptr %4, align 8
  %10 = load i64, ptr %4, align 8
  ret i64 %10
}

; Function Attrs: mustprogress nounwind uwtable
define linkonce_odr dso_local void @_ZN12VFileContent6refIncEv(ptr noundef nonnull align 8 dereferenceable(96) %0) #5 comdat align 2 {
  %2 = alloca ptr, align 8
  store ptr %0, ptr %2, align 8
  %3 = load ptr, ptr %2, align 8
  %4 = getelementptr inbounds %class.VFileContent, ptr %3, i32 0, i32 1
  %5 = call noundef i64 @_ZNSt13__atomic_baseImEppEv(ptr noundef nonnull align 8 dereferenceable(8) %4) #3
  ret void
}

; Function Attrs: mustprogress uwtable
define linkonce_odr dso_local void @_ZN12VFileContentC2Ev(ptr noundef nonnull align 8 dereferenceable(96) %0) unnamed_addr #4 comdat align 2 {
  %2 = alloca ptr, align 8
  store ptr %0, ptr %2, align 8
  %3 = load ptr, ptr %2, align 8
  %4 = getelementptr inbounds %class.VFileContent, ptr %3, i32 0, i32 1
  call void @_ZNSt6atomicImEC2Em(ptr noundef nonnull align 8 dereferenceable(8) %4, i64 noundef 0) #3
  %5 = getelementptr inbounds %class.VFileContent, ptr %3, i32 0, i32 2
  call void @_ZNSt5dequeINSt7__cxx1112basic_stringIcSt11char_traitsIcESaIcEEESaIS5_EEC2Ev(ptr noundef nonnull align 8 dereferenceable(80) %5)
  %6 = load i32, ptr @_ZZN12VFileContentC1EvE4s_id, align 4
  %7 = add nsw i32 %6, 1
  store i32 %7, ptr @_ZZN12VFileContentC1EvE4s_id, align 4
  %8 = getelementptr inbounds %class.VFileContent, ptr %3, i32 0, i32 0
  store i32 %7, ptr %8, align 8
  ret void
}

; Function Attrs: mustprogress nounwind uwtable
define linkonce_odr dso_local void @_ZN12VFileContent6refDecEv(ptr noundef nonnull align 8 dereferenceable(96) %0) #5 comdat align 2 {
  %2 = alloca ptr, align 8
  store ptr %0, ptr %2, align 8
  %3 = load ptr, ptr %2, align 8
  %4 = getelementptr inbounds %class.VFileContent, ptr %3, i32 0, i32 1
  %5 = call noundef i64 @_ZNSt13__atomic_baseImEmmEv(ptr noundef nonnull align 8 dereferenceable(8) %4) #3
  %6 = icmp ne i64 %5, 0
  br i1 %6, label %11, label %7

7:                                                ; preds = %1
  %8 = icmp eq ptr %3, null
  br i1 %8, label %10, label %9

9:                                                ; preds = %7
  call void @_ZN12VFileContentD2Ev(ptr noundef nonnull align 8 dereferenceable(96) %3) #3
  call void @_ZdlPv(ptr noundef %3) #18
  br label %10

10:                                               ; preds = %9, %7
  br label %11

11:                                               ; preds = %10, %1
  ret void
}

; Function Attrs: mustprogress uwtable
define dso_local void @_ZN8FileLine10newContentEv(ptr noundef nonnull align 8 dereferenceable(40) %0) #4 align 2 personality ptr @__gxx_personality_v0 {
  %2 = alloca ptr, align 8
  %3 = alloca ptr, align 8
  %4 = alloca i32, align 4
  store ptr %0, ptr %2, align 8
  %5 = load ptr, ptr %2, align 8
  %6 = getelementptr inbounds %class.FileLine, ptr %5, i32 0, i32 7
  %7 = load ptr, ptr %6, align 8
  %8 = icmp ne ptr %7, null
  br i1 %8, label %9, label %19

9:                                                ; preds = %1
  br label %10

10:                                               ; preds = %9
  br label %11

11:                                               ; preds = %10
  %12 = getelementptr inbounds %class.FileLine, ptr %5, i32 0, i32 7
  %13 = load ptr, ptr %12, align 8
  call void @_ZN12VFileContent6refDecEv(ptr noundef nonnull align 8 dereferenceable(96) %13)
  br label %14

14:                                               ; preds = %11
  br label %15

15:                                               ; preds = %14
  %16 = getelementptr inbounds %class.FileLine, ptr %5, i32 0, i32 7
  store ptr null, ptr %16, align 8
  br label %17

17:                                               ; preds = %15
  br label %18

18:                                               ; preds = %17
  br label %19

19:                                               ; preds = %18, %1
  %20 = call noalias noundef nonnull ptr @_Znwm(i64 noundef 96) #19
  invoke void @_ZN12VFileContentC2Ev(ptr noundef nonnull align 8 dereferenceable(96) %20)
          to label %21 unwind label %29

21:                                               ; preds = %19
  %22 = getelementptr inbounds %class.FileLine, ptr %5, i32 0, i32 7
  store ptr %20, ptr %22, align 8
  %23 = getelementptr inbounds %class.FileLine, ptr %5, i32 0, i32 7
  %24 = load ptr, ptr %23, align 8
  call void @_ZN12VFileContent6refIncEv(ptr noundef nonnull align 8 dereferenceable(96) %24)
  %25 = getelementptr inbounds %class.FileLine, ptr %5, i32 0, i32 2
  %26 = load i32, ptr %25, align 4
  %27 = and i32 %26, 1
  %28 = or i32 %27, 2
  store i32 %28, ptr %25, align 4
  ret void

29:                                               ; preds = %19
  %30 = landingpad { ptr, i32 }
          cleanup
  %31 = extractvalue { ptr, i32 } %30, 0
  store ptr %31, ptr %3, align 8
  %32 = extractvalue { ptr, i32 } %30, 1
  store i32 %32, ptr %4, align 4
  call void @_ZdlPv(ptr noundef %20) #18
  br label %33

33:                                               ; preds = %29
  %34 = load ptr, ptr %3, align 8
  %35 = load i32, ptr %4, align 4
  %36 = insertvalue { ptr, i32 } poison, ptr %34, 0
  %37 = insertvalue { ptr, i32 } %36, i32 %35, 1
  resume { ptr, i32 } %37
}