; Function Attrs: mustprogress uwtable
define dso_local void @_ZN8FileLine10newContentEv(ptr nocapture noundef nonnull align 8 dereferenceable(40) %0) local_unnamed_addr #3 align 2 personality ptr @__gxx_personality_v0 {
  %2 = getelementptr inbounds i8, ptr %0, i64 24
  %3 = load ptr, ptr %2, align 8
  %.not = icmp eq ptr %3, null
  br i1 %.not, label %9, label %4

4:                                                ; preds = %1
  %5 = getelementptr inbounds i8, ptr %3, i64 8
  %6 = atomicrmw sub ptr %5, i64 1 seq_cst, align 8
  %.not.i = icmp eq i64 %6, 1
  br i1 %.not.i, label %7, label %_ZN12VFileContent6refDecEv.exit

7:                                                ; preds = %4
  %8 = getelementptr inbounds i8, ptr %3, i64 16
  tail call void @_ZNSt5dequeINSt7__cxx1112basic_stringIcSt11char_traitsIcESaIcEEESaIS5_EED2Ev(ptr noundef nonnull align 8 dereferenceable(80) %8) #20
  tail call void @_ZdlPv(ptr noundef nonnull %3) #25
  br label %_ZN12VFileContent6refDecEv.exit

_ZN12VFileContent6refDecEv.exit:                  ; preds = %4, %7
  store ptr null, ptr %2, align 8
  br label %9

9:                                                ; preds = %_ZN12VFileContent6refDecEv.exit, %1
  %10 = tail call noalias noundef nonnull dereferenceable(96) ptr @_Znwm(i64 noundef 96) #24
  %11 = getelementptr inbounds i8, ptr %10, i64 8
  %12 = getelementptr inbounds i8, ptr %10, i64 16
  tail call void @llvm.memset.p0.i64(ptr noundef nonnull align 8 dereferenceable(88) %11, i8 0, i64 88, i1 false)
  invoke void @_ZNSt11_Deque_baseINSt7__cxx1112basic_stringIcSt11char_traitsIcESaIcEEESaIS5_EE17_M_initialize_mapEm(ptr noundef nonnull align 8 dereferenceable(80) %12, i64 noundef 0)
          to label %13 unwind label %21

13:                                               ; preds = %9
  %14 = load i32, ptr @_ZZN12VFileContentC1EvE4s_id, align 4
  %15 = add nsw i32 %14, 1
  store i32 %15, ptr @_ZZN12VFileContentC1EvE4s_id, align 4
  store i32 %15, ptr %10, align 8
  store ptr %10, ptr %2, align 8
  %16 = atomicrmw add ptr %11, i64 1 seq_cst, align 8
  %17 = getelementptr inbounds i8, ptr %0, i64 4
  %18 = load i32, ptr %17, align 4
  %19 = and i32 %18, 1
  %20 = or disjoint i32 %19, 2
  store i32 %20, ptr %17, align 4
  ret void

21:                                               ; preds = %9
  %22 = landingpad { ptr, i32 }
          cleanup
  tail call void @_ZdlPv(ptr noundef nonnull %10) #25
  resume { ptr, i32 } %22
}